; Function Attrs: nofree nosync nounwind memory(read, inaccessiblemem: none) uwtable
define i64 @Gia_ResubToTruth6(ptr noundef %0) local_unnamed_addr #1 {
  %2 = getelementptr i8, ptr %0, i64 4
  %.val = load i32, ptr %2, align 4
  %3 = getelementptr i8, ptr %0, i64 8
  %.val10 = load ptr, ptr %3, align 8
  %4 = sext i32 %.val to i64
  %5 = getelementptr i32, ptr %.val10, i64 %4
  %6 = getelementptr i8, ptr %5, i64 -4
  %7 = load i32, ptr %6, align 4
  %8 = icmp slt i32 %7, 2
  br i1 %8, label %9, label %11

9:                                                ; preds = %1
  %.not = icmp ne i32 %7, 0
  %10 = sext i1 %.not to i64
  br label %26

11:                                               ; preds = %1
  %12 = lshr i32 %7, 1
  %13 = add nsw i32 %12, -2
  %14 = icmp eq i32 %.val, 1
  br i1 %14, label %15, label %19

15:                                               ; preds = %11
  %16 = load i32, ptr %.val10, align 4
  %17 = icmp sgt i32 %16, 1
  %18 = zext i1 %17 to i32
  br label %Gia_ResubVarNum.exit

19:                                               ; preds = %11
  %.neg.i = sdiv i32 %.val, -2
  %20 = add nsw i32 %.neg.i, -1
  %21 = add nsw i32 %20, %12
  br label %Gia_ResubVarNum.exit

Gia_ResubVarNum.exit:                             ; preds = %15, %19
  %.0.i = phi i32 [ %18, %15 ], [ %21, %19 ]
  %22 = tail call i64 @Gia_ResubToTruth6_rec(ptr noundef nonnull %0, i32 noundef %13, i32 noundef %.0.i)
  %23 = and i32 %7, 1
  %sext = sub nsw i32 0, %23
  %24 = sext i32 %sext to i64
  %25 = xor i64 %22, %24
  br label %26

26:                                               ; preds = %Gia_ResubVarNum.exit, %9
  %.0 = phi i64 [ %10, %9 ], [ %25, %Gia_ResubVarNum.exit ]
  ret i64 %.0
}